target datalayout = "e-m:e-p270:32:32-p271:32:32-p272:64:64-i64:64-i128:128-f80:128-n8:16:32:64-S128"
target triple = "x86_64-pc-linux-gnu"

%struct.FT_StreamRec_ = type { ptr, i64, i64, %union.FT_StreamDesc_, %union.FT_StreamDesc_, ptr, ptr, ptr, ptr, ptr }
%union.FT_StreamDesc_ = type { i64 }
%struct.FT_GZipFileRec_ = type { ptr, ptr, ptr, %struct.z_stream_s, i64, [4096 x i8], [4096 x i8], i64, ptr, ptr }
%struct.z_stream_s = type { ptr, i32, i64, ptr, i32, i64, ptr, ptr, ptr, ptr, ptr, i32, i64, i64 }

; Function Attrs: nounwind uwtable
define internal void @ft_gzip_file_done(ptr noundef %0) #0 {
  %2 = alloca ptr, align 8
  %3 = alloca ptr, align 8
  store ptr %0, ptr %2, align 8
  %4 = load ptr, ptr %2, align 8
  %5 = getelementptr inbounds %struct.FT_GZipFileRec_, ptr %4, i32 0, i32 3
  store ptr %5, ptr %3, align 8
  %6 = load ptr, ptr %3, align 8
  %7 = call i32 @inflateEnd(ptr noundef %6)
  %8 = load ptr, ptr %3, align 8
  %9 = getelementptr inbounds %struct.z_stream_s, ptr %8, i32 0, i32 8
  store ptr null, ptr %9, align 8
  %10 = load ptr, ptr %3, align 8
  %11 = getelementptr inbounds %struct.z_stream_s, ptr %10, i32 0, i32 9
  store ptr null, ptr %11, align 8
  %12 = load ptr, ptr %3, align 8
  %13 = getelementptr inbounds %struct.z_stream_s, ptr %12, i32 0, i32 10
  store ptr null, ptr %13, align 8
  %14 = load ptr, ptr %3, align 8
  %15 = getelementptr inbounds %struct.z_stream_s, ptr %14, i32 0, i32 0
  store ptr null, ptr %15, align 8
  %16 = load ptr, ptr %3, align 8
  %17 = getelementptr inbounds %struct.z_stream_s, ptr %16, i32 0, i32 3
  store ptr null, ptr %17, align 8
  %18 = load ptr, ptr %3, align 8
  %19 = getelementptr inbounds %struct.z_stream_s, ptr %18, i32 0, i32 1
  store i32 0, ptr %19, align 8
  %20 = load ptr, ptr %3, align 8
  %21 = getelementptr inbounds %struct.z_stream_s, ptr %20, i32 0, i32 4
  store i32 0, ptr %21, align 8
  %22 = load ptr, ptr %2, align 8
  %23 = getelementptr inbounds %struct.FT_GZipFileRec_, ptr %22, i32 0, i32 2
  store ptr null, ptr %23, align 8
  %24 = load ptr, ptr %2, align 8
  %25 = getelementptr inbounds %struct.FT_GZipFileRec_, ptr %24, i32 0, i32 0
  store ptr null, ptr %25, align 8
  %26 = load ptr, ptr %2, align 8
  %27 = getelementptr inbounds %struct.FT_GZipFileRec_, ptr %26, i32 0, i32 1
  store ptr null, ptr %27, align 8
  ret void
}

; Function Attrs: nounwind uwtable
define internal void @ft_gzip_stream_close(ptr noundef %0) #0 {
  %2 = alloca ptr, align 8
  %3 = alloca ptr, align 8
  %4 = alloca ptr, align 8
  store ptr %0, ptr %2, align 8
  %5 = load ptr, ptr %2, align 8
  %6 = getelementptr inbounds %struct.FT_StreamRec_, ptr %5, i32 0, i32 3
  %7 = load ptr, ptr %6, align 8
  store ptr %7, ptr %3, align 8
  %8 = load ptr, ptr %2, align 8
  %9 = getelementptr inbounds %struct.FT_StreamRec_, ptr %8, i32 0, i32 7
  %10 = load ptr, ptr %9, align 8
  store ptr %10, ptr %4, align 8
  %11 = load ptr, ptr %3, align 8
  %12 = icmp ne ptr %11, null
  br i1 %12, label %13, label %21

13:                                               ; preds = %1
  %14 = load ptr, ptr %3, align 8
  call void @ft_gzip_file_done(ptr noundef %14)
  br label %15

15:                                               ; preds = %13
  %16 = load ptr, ptr %4, align 8
  %17 = load ptr, ptr %3, align 8
  call void @ft_mem_free(ptr noundef %16, ptr noundef %17)
  store ptr null, ptr %3, align 8
  br label %18

18:                                               ; preds = %15
  %19 = load ptr, ptr %2, align 8
  %20 = getelementptr inbounds %struct.FT_StreamRec_, ptr %19, i32 0, i32 3
  store ptr null, ptr %20, align 8
  br label %21

21:                                               ; preds = %18, %1
  %22 = load ptr, ptr %2, align 8
  %23 = getelementptr inbounds %struct.FT_StreamRec_, ptr %22, i32 0, i32 5
  %24 = load ptr, ptr %23, align 8
  %25 = icmp ne ptr %24, null
  br i1 %25, label %35, label %26

26:                                               ; preds = %21
  br label %27

27:                                               ; preds = %26
  %28 = load ptr, ptr %4, align 8
  %29 = load ptr, ptr %2, align 8
  %30 = getelementptr inbounds %struct.FT_StreamRec_, ptr %29, i32 0, i32 0
  %31 = load ptr, ptr %30, align 8
  call void @ft_mem_free(ptr noundef %28, ptr noundef %31)
  %32 = load ptr, ptr %2, align 8
  %33 = getelementptr inbounds %struct.FT_StreamRec_, ptr %32, i32 0, i32 0
  store ptr null, ptr %33, align 8
  br label %34

34:                                               ; preds = %27
  br label %35

35:                                               ; preds = %34, %21
  ret void
}