; Function Attrs: nounwind uwtable
define internal void @ft_gzip_stream_close(ptr nocapture noundef %0) #0 {
  %2 = getelementptr inbounds i8, ptr %0, i64 24
  %3 = load ptr, ptr %2, align 8
  %4 = getelementptr inbounds i8, ptr %0, i64 56
  %5 = load ptr, ptr %4, align 8
  %.not = icmp eq ptr %3, null
  br i1 %.not, label %12, label %6

6:                                                ; preds = %1
  %7 = getelementptr inbounds i8, ptr %3, i64 24
  %8 = tail call i32 @inflateEnd(ptr noundef nonnull %7) #6
  %9 = getelementptr inbounds i8, ptr %3, i64 88
  %10 = getelementptr inbounds i8, ptr %3, i64 48
  store ptr null, ptr %10, align 8
  %11 = getelementptr inbounds i8, ptr %3, i64 56
  store i32 0, ptr %11, align 8
  tail call void @llvm.memset.p0.i64(ptr noundef nonnull align 8 dereferenceable(36) %3, i8 0, i64 36, i1 false)
  tail call void @llvm.memset.p0.i64(ptr noundef nonnull align 8 dereferenceable(24) %9, i8 0, i64 24, i1 false)
  tail call void @ft_mem_free(ptr noundef %5, ptr noundef nonnull %3) #6
  store ptr null, ptr %2, align 8
  br label %12

12:                                               ; preds = %6, %1
  %13 = getelementptr inbounds i8, ptr %0, i64 40
  %14 = load ptr, ptr %13, align 8
  %.not11 = icmp eq ptr %14, null
  br i1 %.not11, label %15, label %17

15:                                               ; preds = %12
  %16 = load ptr, ptr %0, align 8
  tail call void @ft_mem_free(ptr noundef %5, ptr noundef %16) #6
  store ptr null, ptr %0, align 8
  br label %17

17:                                               ; preds = %15, %12
  ret void
}